target datalayout = "e-m:e-p270:32:32-p271:32:32-p272:64:64-i64:64-i128:128-f80:128-n8:16:32:64-S128"
target triple = "x86_64-pc-linux-gnu"

%struct.tsearch_config_match = type { ptr, ptr }

@lc_ctype = internal global ptr null, align 8
@default_text_search_config = internal global ptr null, align 8
@.str.37 = private unnamed_addr constant [66 x i8] c"could not find suitable text search configuration for locale \22%s\22\00", align 1
@.str.38 = private unnamed_addr constant [7 x i8] c"simple\00", align 1
@.str.39 = private unnamed_addr constant [62 x i8] c"suitable text search configuration for locale \22%s\22 is unknown\00", align 1
@.str.40 = private unnamed_addr constant [69 x i8] c"specified text search configuration \22%s\22 might not match locale \22%s\22\00", align 1
@.str.41 = private unnamed_addr constant [60 x i8] c"The default text search configuration will be set to \22%s\22.\0A\00", align 1
@.str.152 = private unnamed_addr constant [1 x i8] zeroinitializer, align 1

; Function Attrs: nounwind uwtable
define internal ptr @find_matching_ts_config(ptr noundef %0) #0 {
  %2 = alloca ptr, align 8
  %3 = alloca ptr, align 8
  %4 = alloca i32, align 4
  %5 = alloca ptr, align 8
  %6 = alloca ptr, align 8
  %7 = alloca i32, align 4
  store ptr %0, ptr %3, align 8
  call void @llvm.lifetime.start.p0(i64 4, ptr %4) #10
  call void @llvm.lifetime.start.p0(i64 8, ptr %5) #10
  call void @llvm.lifetime.start.p0(i64 8, ptr %6) #10
  %8 = load ptr, ptr %3, align 8
  %9 = icmp eq ptr %8, null
  br i1 %9, label %10, label %12

10:                                               ; preds = %1
  %11 = call ptr @pg_strdup(ptr noundef @.str.152)
  store ptr %11, ptr %5, align 8
  br label %47

12:                                               ; preds = %1
  %13 = load ptr, ptr %3, align 8
  %14 = call ptr @pg_strdup(ptr noundef %13)
  store ptr %14, ptr %5, align 8
  store ptr %14, ptr %6, align 8
  br label %15

15:                                               ; preds = %42, %12
  %16 = load ptr, ptr %6, align 8
  %17 = load i8, ptr %16, align 1
  %18 = sext i8 %17 to i32
  %19 = icmp ne i32 %18, 0
  br i1 %19, label %20, label %40

20:                                               ; preds = %15
  %21 = load ptr, ptr %6, align 8
  %22 = load i8, ptr %21, align 1
  %23 = sext i8 %22 to i32
  %24 = icmp ne i32 %23, 95
  br i1 %24, label %25, label %40

25:                                               ; preds = %20
  %26 = load ptr, ptr %6, align 8
  %27 = load i8, ptr %26, align 1
  %28 = sext i8 %27 to i32
  %29 = icmp ne i32 %28, 45
  br i1 %29, label %30, label %40

30:                                               ; preds = %25
  %31 = load ptr, ptr %6, align 8
  %32 = load i8, ptr %31, align 1
  %33 = sext i8 %32 to i32
  %34 = icmp ne i32 %33, 46
  br i1 %34, label %35, label %40

35:                                               ; preds = %30
  %36 = load ptr, ptr %6, align 8
  %37 = load i8, ptr %36, align 1
  %38 = sext i8 %37 to i32
  %39 = icmp ne i32 %38, 64
  br label %40

40:                                               ; preds = %35, %30, %25, %20, %15
  %41 = phi i1 [ false, %30 ], [ false, %25 ], [ false, %20 ], [ false, %15 ], [ %39, %35 ]
  br i1 %41, label %42, label %45

42:                                               ; preds = %40
  %43 = load ptr, ptr %6, align 8
  %44 = getelementptr inbounds nuw i8, ptr %43, i32 1
  store ptr %44, ptr %6, align 8
  br label %15, !llvm.loop !6

45:                                               ; preds = %40
  %46 = load ptr, ptr %6, align 8
  store i8 0, ptr %46, align 1
  br label %47

47:                                               ; preds = %45, %10
  store i32 0, ptr %4, align 4
  br label %48

48:                                               ; preds = %72, %47
  %49 = load i32, ptr %4, align 4
  %50 = sext i32 %49 to i64
  %51 = getelementptr inbounds [58 x %struct.tsearch_config_match], ptr @tsearch_config_languages, i64 0, i64 %50
  %52 = getelementptr inbounds nuw %struct.tsearch_config_match, ptr %51, i32 0, i32 0
  %53 = load ptr, ptr %52, align 16
  %54 = icmp ne ptr %53, null
  br i1 %54, label %55, label %75

55:                                               ; preds = %48
  %56 = load i32, ptr %4, align 4
  %57 = sext i32 %56 to i64
  %58 = getelementptr inbounds [58 x %struct.tsearch_config_match], ptr @tsearch_config_languages, i64 0, i64 %57
  %59 = getelementptr inbounds nuw %struct.tsearch_config_match, ptr %58, i32 0, i32 1
  %60 = load ptr, ptr %59, align 8
  %61 = load ptr, ptr %5, align 8
  %62 = call i32 @pg_strcasecmp(ptr noundef %60, ptr noundef %61)
  %63 = icmp eq i32 %62, 0
  br i1 %63, label %64, label %71

64:                                               ; preds = %55
  %65 = load ptr, ptr %5, align 8
  call void @free(ptr noundef %65) #10
  %66 = load i32, ptr %4, align 4
  %67 = sext i32 %66 to i64
  %68 = getelementptr inbounds [58 x %struct.tsearch_config_match], ptr @tsearch_config_languages, i64 0, i64 %67
  %69 = getelementptr inbounds nuw %struct.tsearch_config_match, ptr %68, i32 0, i32 0
  %70 = load ptr, ptr %69, align 16
  store ptr %70, ptr %2, align 8
  store i32 1, ptr %7, align 4
  br label %77

71:                                               ; preds = %55
  br label %72

72:                                               ; preds = %71
  %73 = load i32, ptr %4, align 4
  %74 = add i32 %73, 1
  store i32 %74, ptr %4, align 4
  br label %48, !llvm.loop !8

75:                                               ; preds = %48
  %76 = load ptr, ptr %5, align 8
  call void @free(ptr noundef %76) #10
  store ptr null, ptr %2, align 8
  store i32 1, ptr %7, align 4
  br label %77

77:                                               ; preds = %75, %64
  call void @llvm.lifetime.end.p0(i64 8, ptr %6) #10
  call void @llvm.lifetime.end.p0(i64 8, ptr %5) #10
  call void @llvm.lifetime.end.p0(i64 4, ptr %4) #10
  %78 = load ptr, ptr %2, align 8
  ret ptr %78
}

; Function Attrs: nounwind uwtable
define dso_local void @setup_text_search() #0 {
  %1 = alloca ptr, align 8
  %2 = load ptr, ptr @default_text_search_config, align 8
  %3 = icmp ne ptr %2, null
  br i1 %3, label %12, label %4

4:                                                ; preds = %0
  %5 = load ptr, ptr @lc_ctype, align 8
  %6 = call ptr @find_matching_ts_config(ptr noundef %5)
  store ptr %6, ptr @default_text_search_config, align 8
  %7 = load ptr, ptr @default_text_search_config, align 8
  %8 = icmp ne ptr %7, null
  br i1 %8, label %11, label %9

9:                                                ; preds = %4
  %10 = load ptr, ptr @lc_ctype, align 8
  call void (i32, i32, ptr, ...) @pg_log_generic(i32 noundef 2, i32 noundef 0, ptr noundef @.str.37, ptr noundef %10)
  store ptr @.str.38, ptr @default_text_search_config, align 8
  br label %11

11:                                               ; preds = %9, %4
  br label %29

12:                                               ; preds = %0
  call void @llvm.lifetime.start.p0(i64 8, ptr %1) #10
  %13 = load ptr, ptr @lc_ctype, align 8
  %14 = call ptr @find_matching_ts_config(ptr noundef %13)
  store ptr %14, ptr %1, align 8
  %15 = load ptr, ptr %1, align 8
  %16 = icmp eq ptr %15, null
  br i1 %16, label %17, label %19

17:                                               ; preds = %12
  %18 = load ptr, ptr @lc_ctype, align 8
  call void (i32, i32, ptr, ...) @pg_log_generic(i32 noundef 3, i32 noundef 0, ptr noundef @.str.39, ptr noundef %18)
  br label %28

19:                                               ; preds = %12
  %20 = load ptr, ptr %1, align 8
  %21 = load ptr, ptr @default_text_search_config, align 8
  %22 = call i32 @strcmp(ptr noundef %20, ptr noundef %21) #11
  %23 = icmp ne i32 %22, 0
  br i1 %23, label %24, label %27

24:                                               ; preds = %19
  %25 = load ptr, ptr @default_text_search_config, align 8
  %26 = load ptr, ptr @lc_ctype, align 8
  call void (i32, i32, ptr, ...) @pg_log_generic(i32 noundef 3, i32 noundef 0, ptr noundef @.str.40, ptr noundef %25, ptr noundef %26)
  br label %27

27:                                               ; preds = %24, %19
  br label %28

28:                                               ; preds = %27, %17
  call void @llvm.lifetime.end.p0(i64 8, ptr %1) #10
  br label %29

29:                                               ; preds = %28, %11
  %30 = load ptr, ptr @default_text_search_config, align 8
  %31 = call i32 (ptr, ...) @pg_printf(ptr noundef @.str.41, ptr noundef %30)
  ret void
}