; Function Attrs: nounwind uwtable
define dso_local void @setup_text_search() local_unnamed_addr #0 {
  %1 = load ptr, ptr @default_text_search_config, align 8
  %.not = icmp eq ptr %1, null
  %2 = load ptr, ptr @lc_ctype, align 8
  %3 = icmp eq ptr %2, null
  br i1 %.not, label %4, label %25

4:                                                ; preds = %0
  br i1 %3, label %5, label %7

5:                                                ; preds = %4
  %6 = tail call ptr @pg_strdup(ptr noundef nonnull @.str.152) #19
  br label %13

7:                                                ; preds = %4
  %8 = tail call ptr @pg_strdup(ptr noundef nonnull %2) #19
  br label %9

9:                                                ; preds = %11, %7
  %.0.i = phi ptr [ %8, %7 ], [ %12, %11 ]
  %10 = load i8, ptr %.0.i, align 1
  switch i8 %10, label %11 [
    i8 0, label %.critedge.i
    i8 95, label %.critedge.i
    i8 45, label %.critedge.i
    i8 46, label %.critedge.i
    i8 64, label %.critedge.i
  ]

11:                                               ; preds = %9
  %12 = getelementptr inbounds nuw i8, ptr %.0.i, i64 1
  br label %9, !llvm.loop !6

.critedge.i:                                      ; preds = %9, %9, %9, %9, %9
  store i8 0, ptr %.0.i, align 1
  br label %13

13:                                               ; preds = %.critedge.i, %5
  %.016.i = phi ptr [ %6, %5 ], [ %8, %.critedge.i ]
  %14 = tail call i32 @pg_strcasecmp(ptr noundef nonnull @.str.175, ptr noundef %.016.i) #19
  %15 = icmp eq i32 %14, 0
  br i1 %15, label %find_matching_ts_config.exit.thread, label %.lr.ph15

find_matching_ts_config.exit.thread:              ; preds = %13
  tail call void @free(ptr noundef %.016.i) #19
  store ptr @.str.174, ptr @default_text_search_config, align 8
  br label %53

.lr.ph15:                                         ; preds = %13, %17
  %indvars.iv.i14 = phi i64 [ %indvars.iv.next.i, %17 ], [ 0, %13 ]
  %indvars.iv.next.i = add nuw nsw i64 %indvars.iv.i14, 1
  %16 = getelementptr inbounds nuw [58 x %struct.tsearch_config_match], ptr @tsearch_config_languages, i64 0, i64 %indvars.iv.next.i
  %exitcond.i = icmp eq i64 %indvars.iv.next.i, 57
  br i1 %exitcond.i, label %find_matching_ts_config.exit, label %17, !llvm.loop !7

17:                                               ; preds = %.lr.ph15
  %18 = getelementptr inbounds nuw i8, ptr %16, i64 8
  %19 = load ptr, ptr %18, align 8
  %20 = tail call i32 @pg_strcasecmp(ptr noundef %19, ptr noundef %.016.i) #19
  %21 = icmp eq i32 %20, 0
  br i1 %21, label %find_matching_ts_config.exit, label %.lr.ph15, !llvm.loop !7

find_matching_ts_config.exit:                     ; preds = %17, %.lr.ph15
  %22 = load ptr, ptr %16, align 16
  tail call void @free(ptr noundef %.016.i) #19
  store ptr %22, ptr @default_text_search_config, align 8
  %.not2 = icmp eq ptr %22, null
  br i1 %.not2, label %23, label %53

23:                                               ; preds = %find_matching_ts_config.exit
  %24 = load ptr, ptr @lc_ctype, align 8
  tail call void (i32, i32, ptr, ...) @pg_log_generic(i32 noundef 2, i32 noundef 0, ptr noundef nonnull @.str.37, ptr noundef %24) #19
  store ptr @.str.38, ptr @default_text_search_config, align 8
  br label %53

25:                                               ; preds = %0
  br i1 %3, label %26, label %28

26:                                               ; preds = %25
  %27 = tail call ptr @pg_strdup(ptr noundef nonnull @.str.152) #19
  br label %34

28:                                               ; preds = %25
  %29 = tail call ptr @pg_strdup(ptr noundef nonnull %2) #19
  br label %30

30:                                               ; preds = %32, %28
  %.0.i4 = phi ptr [ %29, %28 ], [ %33, %32 ]
  %31 = load i8, ptr %.0.i4, align 1
  switch i8 %31, label %32 [
    i8 0, label %.critedge.i5
    i8 95, label %.critedge.i5
    i8 45, label %.critedge.i5
    i8 46, label %.critedge.i5
    i8 64, label %.critedge.i5
  ]

32:                                               ; preds = %30
  %33 = getelementptr inbounds nuw i8, ptr %.0.i4, i64 1
  br label %30, !llvm.loop !6

.critedge.i5:                                     ; preds = %30, %30, %30, %30, %30
  store i8 0, ptr %.0.i4, align 1
  br label %34

34:                                               ; preds = %.critedge.i5, %26
  %.016.i6 = phi ptr [ %27, %26 ], [ %29, %.critedge.i5 ]
  %35 = tail call i32 @pg_strcasecmp(ptr noundef nonnull @.str.175, ptr noundef %.016.i6) #19
  %36 = icmp eq i32 %35, 0
  br i1 %36, label %find_matching_ts_config.exit10.thread, label %.lr.ph

find_matching_ts_config.exit10.thread:            ; preds = %34
  tail call void @free(ptr noundef %.016.i6) #19
  br label %47

.lr.ph:                                           ; preds = %34, %38
  %indvars.iv.i711 = phi i64 [ %indvars.iv.next.i8, %38 ], [ 0, %34 ]
  %indvars.iv.next.i8 = add nuw nsw i64 %indvars.iv.i711, 1
  %37 = getelementptr inbounds nuw [58 x %struct.tsearch_config_match], ptr @tsearch_config_languages, i64 0, i64 %indvars.iv.next.i8
  %exitcond.i9 = icmp eq i64 %indvars.iv.next.i8, 57
  br i1 %exitcond.i9, label %find_matching_ts_config.exit10, label %38, !llvm.loop !7

38:                                               ; preds = %.lr.ph
  %39 = getelementptr inbounds nuw i8, ptr %37, i64 8
  %40 = load ptr, ptr %39, align 8
  %41 = tail call i32 @pg_strcasecmp(ptr noundef %40, ptr noundef %.016.i6) #19
  %42 = icmp eq i32 %41, 0
  br i1 %42, label %find_matching_ts_config.exit10, label %.lr.ph, !llvm.loop !7

find_matching_ts_config.exit10:                   ; preds = %38, %.lr.ph
  %43 = load ptr, ptr %37, align 16
  tail call void @free(ptr noundef %.016.i6) #19
  %44 = icmp eq ptr %43, null
  br i1 %44, label %45, label %47

45:                                               ; preds = %find_matching_ts_config.exit10
  %46 = load ptr, ptr @lc_ctype, align 8
  tail call void (i32, i32, ptr, ...) @pg_log_generic(i32 noundef 3, i32 noundef 0, ptr noundef nonnull @.str.39, ptr noundef %46) #19
  br label %53

47:                                               ; preds = %find_matching_ts_config.exit10.thread, %find_matching_ts_config.exit10
  %48 = phi ptr [ @.str.174, %find_matching_ts_config.exit10.thread ], [ %43, %find_matching_ts_config.exit10 ]
  %49 = load ptr, ptr @default_text_search_config, align 8
  %50 = tail call i32 @strcmp(ptr noundef nonnull dereferenceable(1) %48, ptr noundef nonnull dereferenceable(1) %49) #21
  %.not3 = icmp eq i32 %50, 0
  br i1 %.not3, label %53, label %51

51:                                               ; preds = %47
  %52 = load ptr, ptr @lc_ctype, align 8
  tail call void (i32, i32, ptr, ...) @pg_log_generic(i32 noundef 3, i32 noundef 0, ptr noundef nonnull @.str.40, ptr noundef nonnull %49, ptr noundef %52) #19
  br label %53

53:                                               ; preds = %find_matching_ts_config.exit.thread, %45, %51, %47, %find_matching_ts_config.exit, %23
  %54 = load ptr, ptr @default_text_search_config, align 8
  %55 = tail call i32 (ptr, ...) @pg_printf(ptr noundef nonnull @.str.41, ptr noundef %54) #19
  ret void
}